Certificate:
    Data:
        Version: 3 (0x2)
        Serial Number: 17 (0x11)
    Signature Algorithm: sha1WithRSAEncryption
        Issuer: C=PL, ST=Some-State, L=Krakow, O=ACK Cyfronet AGH, CN=oneproviderTest
        Validity
            Not Before: Apr 24 13:45:55 2014 GMT
            Not After : Apr 21 13:45:55 2024 GMT
        Subject: C=PL, ST=Some-State, O=ACK Cyfronet AGH, CN=oneproviderTestSubCA
        Subject Public Key Info:
            Public Key Algorithm: rsaEncryption
                Public-Key: (4096 bit)
                Modulus:
                    00:b0:c2:46:8c:c3:d4:fb:3a:d2:7a:cf:61:2c:d8:
                    c2:d2:b6:b8:4e:14:15:82:49:d8:6a:84:78:6f:fe:
                    59:77:26:81:49:fa:77:22:85:9d:8d:f0:29:0c:6b:
                    46:82:bc:2b:5c:36:22:77:26:f8:45:d9:33:e8:d2:
                    ed:0e:60:1a:a7:1f:d4:5a:d8:88:e9:71:5f:4b:12:
                    fc:58:af:63:f8:78:68:1f:d6:f0:6b:88:65:cb:6a:
                    aa:87:0b:07:9d:fd:4f:90:18:fe:49:89:ff:1f:6d:
                    7d:d4:15:fb:a0:b8:dc:17:77:80:a5:49:9e:4f:32:
                    95:8d:6a:61:a8:f7:ee:e3:30:f3:48:60:2e:2d:12:
                    e1:0c:82:04:58:13:22:58:9f:f8:fb:69:1c:c6:f5:
                    ee:a7:1a:2e:f2:fc:98:e3:30:04:11:f7:bb:d3:77:
                    5b:46:b4:40:e0:74:3c:b2:0c:50:fa:f6:48:a1:06:
                    4a:a3:99:2f:a0:35:47:1c:45:3b:90:f7:0b:a0:64:
                    95:93:61:c4:93:6d:61:33:d3:be:f5:15:ac:b7:34:
                    9a:1b:96:1e:d5:28:26:cb:a9:8b:2c:8d:bc:c3:39:
                    e6:f4:8d:10:ae:fc:7e:03:eb:21:7d:54:c8:07:fe:
                    50:5d:2b:c9:85:0d:15:07:70:27:df:ac:a8:a4:77:
                    c4:ce:8a:6a:a6:9d:7e:78:96:c9:9f:15:29:96:79:
                    55:05:de:4f:9e:f0:7a:e6:98:22:36:31:1f:d1:ff:
                    4a:7f:c5:4a:6d:8a:d0:13:5a:28:eb:7c:19:b7:db:
                    38:d6:1e:99:cc:04:50:27:3a:75:2e:a5:3f:25:89:
                    08:18:75:ce:98:c3:04:0a:5b:2e:95:94:a8:12:c2:
                    69:a4:69:41:28:f2:43:90:6a:f9:bc:b0:1f:48:f0:
                    68:31:8a:e6:4c:39:74:ac:f5:d1:e1:ae:ed:5d:91:
                    0e:ac:0f:1d:cf:16:d1:76:fa:d0:a6:76:cc:ce:49:
                    ad:ff:d7:69:cf:6c:3e:98:83:73:00:33:1a:6e:56:
                    0a:52:15:58:96:9c:35:72:07:63:5c:8f:12:79:2f:
                    78:3e:aa:df:67:92:e9:85:82:76:9c:68:db:21:a9:
                    70:c0:ba:7e:18:56:2e:8e:99:19:47:31:ae:f7:45:
                    f0:85:f8:91:0d:ed:74:a0:5c:f4:55:f7:0d:36:a8:
                    44:71:3b:a8:ed:a8:82:4e:5d:db:ee:b1:1e:fc:33:
                    12:36:b1:b3:16:8f:96:26:27:1d:78:f0:ed:d3:c1:
                    2d:41:4c:8b:c1:b0:df:ef:53:42:22:3b:43:8d:b0:
                    84:be:06:ce:6a:45:4d:c8:6a:4c:ea:87:2f:6f:d8:
                    0a:92:1b
                Exponent: 65537 (0x10001)
        X509v3 extensions:
            X509v3 Subject Key Identifier: 
                3D:1D:74:FB:0D:E6:DA:75:8F:47:75:55:70:23:35:13:0F:83:87:A3
            X509v3 Authority Key Identifier: 
                keyid:A3:D2:D5:84:9A:01:62:41:77:34:E4:DB:E1:74:EC:34:FA:A1:2C:F3

            X509v3 Basic Constraints: 
                CA:TRUE
    Signature Algorithm: sha1WithRSAEncryption
         10:38:f6:d9:c9:98:6d:b9:c3:a2:5f:8b:11:a3:cf:c9:f9:8f:
         c5:6f:7e:af:9d:37:9f:9f:79:2d:b2:25:45:37:e5:12:5f:8f:
         f4:69:0f:aa:90:f5:5b:5b:c3:1e:31:57:40:6f:f4:9c:69:8b:
         6c:9e:8f:31:7b:cd:ff:ce:10:2d:88:23:6e:d6:16:32:2b:3c:
         68:fa:bb:19:84:b2:45:15:ba:92:3a:09:af:fa:ad:cc:a3:ea:
         da:ea:fd:5c:83:78:06:eb:c4:89:89:b0:d1:e0:22:0c:44:24:
         c1:b5:31:cb:66:61:55:13:cb:db:6d:df:40:36:b4:8e:43:2d:
         c0:70:d8:ea:de:19:4d:6f:30:ce:a6:a1:54:da:46:7f:65:26:
         4e:93:24:34:18:ce:ce:cc:d3:49:ae:06:e6:c5:e0:73:81:8a:
         44:6e:4a:b3:21:0c:77:d3:30:7b:62:ce:3d:83:a8:1f:69:2c:
         a3:5c:1c:f1:c7:0b:58:de:09:33:0e:01:ce:20:48:71:5a:08:
         96:02:10:84:18:39:2f:29:db:f1:8d:33:df:e5:a4:1b:46:e4:
         cc:2e:9d:6e:c4:31:a3:6d:0a:7e:5f:ca:5c:c5:b8:5b:44:32:
         b7:ab:68:ec:72:6c:12:fa:7c:f6:5d:9a:0f:be:f1:f8:04:8c:
         c5:aa:e2:18:57:6b:f0:ff:f5:c1:39:0b:0d:c3:9e:f1:39:6a:
         88:53:d1:71:45:b7:cd:77:b7:ef:ed:ad:b9:1c:8f:9c:87:bd:
         d8:a3:d7:49:83:a5:1c:a9:64:89:d5:51:6f:01:a9:9c:18:d9:
         fd:e7:f1:0a:53:f6:0b:a2:bf:03:9e:32:86:9c:b5:61:b1:9e:
         3f:95:cf:ca:e5:ba:1d:2a:82:e1:02:2e:52:ce:44:bd:9a:e0:
         dc:7a:ab:15:1e:40:b6:cb:54:93:df:fb:e6:b7:21:dc:07:bb:
         70:26:47:7b:e9:02:ec:26:68:c9:c6:f8:c7:8e:09:c7:27:7b:
         f9:99:de:e1:fb:67:e3:53:ab:de:f3:11:36:b7:c2:8e:27:f1:
         8a:c2:f0:f9:09:42:ae:ad:8c:d4:e9:2f:fd:38:eb:94:a7:2f:
         fb:e6:79:b3:91:4e:0d:50:26:9c:c3:db:38:05:c2:00:3e:27:
         ba:11:1d:c5:06:38:28:62:49:cf:43:fb:c5:37:2e:b4:b5:a1:
         cd:fc:12:21:ef:ec:75:22:a7:5b:c6:e0:82:ac:f0:b1:e3:c9:
         c0:31:ff:9b:d3:46:bb:8d:19:da:a4:c2:a9:4a:35:76:44:2f:
         be:fd:98:b1:10:29:6f:18:ab:55:5d:dd:a4:50:85:3f:50:d9:
         17:97:28:21:ae:e8:fc:27
-----BEGIN CERTIFICATE-----
MIIFjzCCA3egAwIBAgIBETANBgkqhkiG9w0BAQUFADBoMQswCQYDVQQGEwJQTDET
MBEGA1UECAwKU29tZS1TdGF0ZTEPMA0GA1UEBwwGS3Jha293MRkwFwYDVQQKDBBB
Q0sgQ3lmcm9uZXQgQUdIMRgwFgYDVQQDDA9WZWlsQ2x1c3RlclRlc3QwHhcNMTQw
NDI0MTM0NTU1WhcNMjQwNDIxMTM0NTU1WjBcMQswCQYDVQQGEwJQTDETMBEGA1UE
CAwKU29tZS1TdGF0ZTEZMBcGA1UECgwQQUNLIEN5ZnJvbmV0IEFHSDEdMBsGA1UE
AwwUVmVpbENsdXN0ZXJUZXN0U3ViQ0EwggIiMA0GCSqGSIb3DQEBAQUAA4ICDwAw
ggIKAoICAQCwwkaMw9T7OtJ6z2Es2MLStrhOFBWCSdhqhHhv/ll3JoFJ+ncihZ2N
8CkMa0aCvCtcNiJ3JvhF2TPo0u0OYBqnH9Ra2IjpcV9LEvxYr2P4eGgf1vBriGXL
aqqHCwed/U+QGP5Jif8fbX3UFfuguNwXd4ClSZ5PMpWNamGo9+7jMPNIYC4tEuEM
ggRYEyJYn/j7aRzG9e6nGi7y/JjjMAQR97vTd1tGtEDgdDyyDFD69kihBkqjmS+g
NUccRTuQ9wugZJWTYcSTbWEz0771Fay3NJoblh7VKCbLqYssjbzDOeb0jRCu/H4D
6yF9VMgH/lBdK8mFDRUHcCffrKikd8TOimqmnX54lsmfFSmWeVUF3k+e8HrmmCI2
MR/R/0p/xUptitATWijrfBm32zjWHpnMBFAnOnUupT8liQgYdc6YwwQKWy6VlKgS
wmmkaUEo8kOQavm8sB9I8GgxiuZMOXSs9dHhru1dkQ6sDx3PFtF2+tCmdszOSa3/
12nPbD6Yg3MAMxpuVgpSFViWnDVyB2NcjxJ5L3g+qt9nkumFgnacaNshqXDAun4Y
Vi6OmRlHMa73RfCF+JEN7XSgXPRV9w02qERxO6jtqIJOXdvusR78MxI2sbMWj5Ym
Jx148O3TwS1BTIvBsN/vU0IiO0ONsIS+Bs5qRU3Iakzqhy9v2AqSGwIDAQABo1Aw
TjAdBgNVHQ4EFgQUPR10+w3m2nWPR3VVcCM1Ew+Dh6MwHwYDVR0jBBgwFoAUo9LV
hJoBYkF3NOTb4XTsNPqhLPMwDAYDVR0TBAUwAwEB/zANBgkqhkiG9w0BAQUFAAOC
AgEAEDj22cmYbbnDol+LEaPPyfmPxW9+r503n595LbIlRTflEl+P9GkPqpD1W1vD
HjFXQG/0nGmLbJ6PMXvN/84QLYgjbtYWMis8aPq7GYSyRRW6kjoJr/qtzKPq2ur9
XIN4BuvEiYmw0eAiDEQkwbUxy2ZhVRPL223fQDa0jkMtwHDY6t4ZTW8wzqahVNpG
f2UmTpMkNBjOzszTSa4G5sXgc4GKRG5KsyEMd9Mwe2LOPYOoH2kso1wc8ccLWN4J
Mw4BziBIcVoIlgIQhBg5Lynb8Y0z3+WkG0bkzC6dbsQxo20Kfl/KXMW4W0Qyt6to
7HJsEvp89l2aD77x+ASMxariGFdr8P/1wTkLDcOe8TlqiFPRcUW3zXe37+2tuRyP
nIe92KPXSYOlHKlkidVRbwGpnBjZ/efxClP2C6K/A54yhpy1YbGeP5XPyuW6HSqC
4QIuUs5EvZrg3HqrFR5AtstUk9/75rch3Ae7cCZHe+kC7CZoycb4x44Jxyd7+Zne
4ftn41Or3vMRNrfCjifxisLw+QlCrq2M1Okv/TjrlKcv++Z5s5FODVAmnMPbOAXC
AD4nuhEdxQY4KGJJz0P7xTcutLWhzfwSIe/sdSKnW8bggqzwsePJwDH/m9NGu40Z
2qTCqUo1dkQvvv2YsRApbxirVV3dpFCFP1DZF5coIa7o/Cc=
-----END CERTIFICATE-----
-----BEGIN RSA PRIVATE KEY-----
MIIJKAIBAAKCAgEAsMJGjMPU+zrSes9hLNjC0ra4ThQVgknYaoR4b/5ZdyaBSfp3
IoWdjfApDGtGgrwrXDYidyb4Rdkz6NLtDmAapx/UWtiI6XFfSxL8WK9j+HhoH9bw
a4hly2qqhwsHnf1PkBj+SYn/H2191BX7oLjcF3eApUmeTzKVjWphqPfu4zDzSGAu
LRLhDIIEWBMiWJ/4+2kcxvXupxou8vyY4zAEEfe703dbRrRA4HQ8sgxQ+vZIoQZK
o5kvoDVHHEU7kPcLoGSVk2HEk21hM9O+9RWstzSaG5Ye1Sgmy6mLLI28wznm9I0Q
rvx+A+shfVTIB/5QXSvJhQ0VB3An36yopHfEzopqpp1+eJbJnxUplnlVBd5PnvB6
5pgiNjEf0f9Kf8VKbYrQE1oo63wZt9s41h6ZzARQJzp1LqU/JYkIGHXOmMMEClsu
lZSoEsJppGlBKPJDkGr5vLAfSPBoMYrmTDl0rPXR4a7tXZEOrA8dzxbRdvrQpnbM
zkmt/9dpz2w+mINzADMablYKUhVYlpw1cgdjXI8SeS94PqrfZ5LphYJ2nGjbIalw
wLp+GFYujpkZRzGu90XwhfiRDe10oFz0VfcNNqhEcTuo7aiCTl3b7rEe/DMSNrGz
Fo+WJicdePDt08EtQUyLwbDf71NCIjtDjbCEvgbOakVNyGpM6ocvb9gKkhsCAwEA
AQKCAgB+KVxjso889iIvR/+rG9gKwCJSkGE9ymlutbik7x16PwB/Bgesm0P2gFk8
JQGB5L7qJTV6aFVCvaIgZxSOcyfy63QNl4o5XRNQKW/1+NHZEk/3kdmuVv+ZLjwj
AUthh+EXD8/IO3fePa9XBo3AjNGC6mfnEeGt04QNGMY17SkT/edXXFb5EwWQgOiK
2LVmHmB/SeohVH4PxU+HXaXeWnI9RN5KNGHw2E2KJ0z/JG1Ugx8Z17zEgl0M85oa
4ot+j+Y7iC9+r4S4WZTMgjFFC0Boz2HDmOXO7MasDQpqNYxqp9Rh7qHe1Bc5wsT3
iODxW6KOrec7UTgWRAYhz0HbiiTsuuaGxXchCBLIO64gHzSLP6fqGvfIOqI/x4br
FTuN7oTPjfZ4Ske1bbRMwwOxfrW77pLj9b12InctSCnhUu53pxoc8netig3ys8du
jXV/vG/8QzdlfA1oGH0rXvh7+dQ7PIp0rc1XufnXsofqKY4ZdSqkSDLa5lZO/SFD
cIW0sG4zc18mj6XyCrQZjhoqgJxGKYnIkUvsGjCaacBudahuqa1Y4iA1nKzkmSfL
a+n65QonBou3n7y0XQlaSg1PLYJCv2/0PpJOLrOutYNmP9vu07MzC/YlmCq62hje
jJFCoaPGd8U4tOdYxNLg/5NuyKg//WtO/RRAdaVDfOORsM4beQKCAQEA3A37SN8R
MGaeXfHxBQ5GN2UUWZjT+8YnUz2Fqs8v0NcTx2mXwcsbk1jS7kXi/eqKGVEIXcCn
YCD0rRS3baf8c8YjbgC4SngRmXjVZ4CVpOEixUyPizT7i4T3Rhjuluq5s9+b95ym
aCeioQJ5Oai6JXk5b2vRto9lciZBehBp56pDQl76MOyS0OV4UFJDit/cvN2V1raq
IsV9hIKme7JQzE6XeVVmraduNEDGfz2yvsaE9IrrPH9I2QkMf0RVqQPTs60IDGsz
jdOn+2gUpdqEolbLBAY29hdb/lvQXHt3c63nsRWSNnhtvMNUpshkV1YvGHNWwrNX
G587/Gue1AY5fwKCAQEAzaHMNJ+39qwHot+DiaCi8NShMrReVG8L3QgpNHT9iNRy
vgU8VM4X24WVTlFyAZvixaa838XqhOgqPaC+MMElybqxJz3r51BOYdy89rU5Srnq
8JWOt0ICGahKxLZzmG9bjxpuK17vsoBY8/ThQL7r5G3tb/qwYE2+ajtWM5WxZtG4
MqM4efac7uBogvpYM3sPwCsq9+3dHGjZrJ7g4DCVWeEsVpMQjo/7cPhQRrR2Jsal
dnLwztbYC1p3ydWgESvpsmIpmrv/BdkdzhApNM9u+DpFHcochrozuBLVKKDtZFri
ZA0wCoj38ldjm7EdmnHMfDVd1tr4GjOWxHmaOy2dZQKCAQBDyD697JAj44gmke7W
ytXQHF+PVab+Z8QXPN0ehyFIZ+ecxibLt99vnK2kXXyVEBinwbEdB8nGr4AOjFIQ
Ae2eT8r8CFa8AY4SQwkhD5eIqRyHv5R7ob9V84gjXGypqfW3tUoalHMhpAvRIqzq
mNF114hcjM6VOEhcR/JlQgcNKAH9wLm6NjTnCbfsrdpGPbyFpI+SCsQPX9vQ5FmZ
woxm0lKQOkEdfnRQvh8mdH/JiebMWLoq8V4kFEh4LzlfjWE5eDQBd0fzCN42b5Hk
oJG4W5m/TJbDaOCaUfe1dQaPaGL0xhs6kg/jVBuQICvgRxjMpEJ2SL2tMXhNwWy0
DJLLAoIBAGTMA+pjxGyBBTk8cSD8ggKlZ+MP8RFYYatWPcR9+G2jHh+xN1Kmt6Ee
yQJcABNz02RpiDn0rTG7EEGnUrNZammJPx9qRgHcJp/n8STJzqynl9eYqB2CmL70
9Lmaae114J60KP7PiZWpPnFPPz9alw0hKXtzmhOK6GTwcx/UJ+KruKvxwFRgo6qg
i/pwNt39W8oqHuTrTzCG4PSx6K9cgUlOjEpfyoTnZSyKO+d8vFHjm+YFD6+ENuDR
1tg0BEOGkAamAZjcwHSgafDBkUFW0SGShqDEmtkb2xBHAv/oapV/y2uZ30u6ujer
yKLf3g//6mmUS0xvh6BoW2Yx6X1KrdUCggEBALUB28Q4ydza93hs20oSip6Axco/
sBz3vjDCuQ1mdQrmIOYpD0qWmUBjlJGMeaA0w7jKEIjeNWH3S894+fE7CdVAGxUW
IfQdjDsscPrw0q2csEWTQrcuJmslVAQn898TsIWwh4zqtKOKl5TczFDjB13QB+IB
6qiuzrHx6DySQ1/QJaa2SfgyAWWD+Ll1QttuqSHG7+++z1tCfsTnf5qTt9mkHVZv
TULLCb685z9HQcKq7SVMmGNmbT5/62UqnY0wT1qhR9ZSn/tFhC3NYKyz9ZGRqMPH
QcGcyh9gCruxXAs148Gv9ZFBTxnesMdolFzvaNgQekHm34RDNVkffqje9Cs=
-----END RSA PRIVATE KEY-----
