Certificate:
    Data:
        Version: 3 (0x2)
        Serial Number: 19 (0x13)
    Signature Algorithm: sha1WithRSAEncryption
        Issuer: C=PL, ST=Some-State, O=ACK Cyfronet AGH, CN=oneproviderTestSubCA
        Validity
            Not Before: Apr 24 13:50:05 2014 GMT
            Not After : Apr 21 13:50:05 2024 GMT
        Subject: C=PL, ST=Some-State, O=ACK Cyfronet AGH, CN=oneproviderTestServer
        Subject Public Key Info:
            Public Key Algorithm: rsaEncryption
                Public-Key: (4096 bit)
                Modulus:
                    00:de:a1:dc:bb:3d:3d:25:c3:f5:a6:5c:f1:18:c7:
                    f8:c3:2a:4b:82:6d:ac:c4:9d:04:13:79:c3:06:b1:
                    ea:ec:2a:f0:41:bd:be:89:bd:43:fb:47:b3:da:92:
                    93:7c:37:1f:c6:28:69:dd:48:6f:3e:12:a9:a1:1f:
                    9f:f8:18:af:7d:93:e6:21:68:a8:6c:81:d1:c0:85:
                    d2:01:2b:9a:cf:7d:e1:04:a0:ea:84:22:15:a4:0d:
                    83:0b:a1:25:23:a6:89:1e:79:dc:71:6b:2b:2b:59:
                    70:1c:ce:45:10:43:21:c2:13:f3:c0:f0:0a:fb:5d:
                    aa:3b:59:26:be:23:9c:18:c6:d4:19:c0:71:8f:f5:
                    1c:b5:ef:f7:1a:be:66:60:31:21:e1:f2:99:7e:7c:
                    5f:17:23:77:86:1f:8a:2d:c9:e5:23:70:3c:fb:f6:
                    8e:5f:36:d2:e2:ba:57:95:de:bc:f7:58:2a:e5:34:
                    9e:4a:0a:9e:0b:47:c4:c6:f0:fd:56:59:18:b3:d7:
                    35:08:fd:00:7e:a4:8f:85:70:ef:cf:72:a1:1e:d2:
                    b8:df:8d:cc:c5:da:e5:ff:ff:b8:5f:bb:98:e5:05:
                    6f:7c:82:de:c6:6a:83:af:8d:fa:8d:3d:ab:ac:d7:
                    ee:c7:e0:aa:45:7a:b2:89:27:e3:e9:07:ac:92:ff:
                    5a:08:63:29:b4:96:40:4d:df:1f:fc:f1:14:f7:88:
                    de:84:d0:29:1d:b3:d7:88:82:11:fb:2f:5d:9c:5f:
                    1a:d4:50:d7:25:03:d1:d7:ec:f8:64:1a:90:f1:ac:
                    6d:92:dc:5a:41:1f:ca:bf:68:fe:e8:f7:7c:ef:ea:
                    b6:5d:dc:19:70:3c:dc:19:b3:9c:db:e1:45:c8:25:
                    ea:d4:0f:2f:44:47:cc:f4:a2:41:d5:bb:32:36:45:
                    60:19:29:67:e5:51:34:1a:90:49:31:85:28:d4:fc:
                    5e:ee:36:19:03:97:68:de:d5:a8:93:ed:1e:1b:08:
                    80:b0:67:ac:1a:b5:9f:ef:b9:78:42:ca:25:28:d0:
                    a1:40:b2:0c:6b:db:ed:f3:07:8e:02:07:11:2a:ab:
                    5b:bb:d8:71:e1:14:2d:b1:14:fa:d5:6c:db:04:0a:
                    5f:5e:da:19:d7:0c:9f:60:21:02:4c:85:e7:3f:f3:
                    bb:2d:97:51:c0:02:98:14:da:b8:a5:69:0e:df:e7:
                    7c:c8:a1:c9:38:0e:3f:d1:27:14:65:a5:93:1c:c4:
                    39:1a:75:50:bb:2b:f9:81:82:06:8b:7d:92:bb:91:
                    0e:3a:27:38:5b:cd:3b:8e:de:e0:40:2f:7c:df:b6:
                    57:7a:9f:18:09:3c:46:27:38:7b:37:22:4e:0f:20:
                    3a:cb:6f
                Exponent: 65537 (0x10001)
        X509v3 extensions:
            X509v3 Basic Constraints: 
                CA:FALSE
            Netscape Comment: 
                OpenSSL Generated Certificate
            X509v3 Subject Key Identifier: 
                B0:CC:BF:5F:B4:89:07:F1:BE:28:28:9A:AB:AC:DE:68:0C:6B:0B:F6
            X509v3 Authority Key Identifier: 
                keyid:3D:1D:74:FB:0D:E6:DA:75:8F:47:75:55:70:23:35:13:0F:83:87:A3

    Signature Algorithm: sha1WithRSAEncryption
         1f:95:dc:c6:3b:db:af:e3:97:90:f5:97:4f:40:26:b9:5b:cb:
         eb:41:b4:2e:9a:15:a1:1b:3a:a2:00:8f:6d:7e:66:24:82:f3:
         5c:45:f0:29:b1:78:e5:4c:18:ee:55:c4:c1:d3:f0:d0:98:37:
         63:ea:89:1b:34:3b:55:97:78:e4:1f:da:3e:a4:5b:42:c9:de:
         b0:0b:37:9b:08:86:b5:1e:e5:e6:ee:a3:7f:1f:9e:be:0b:1e:
         b7:7a:03:71:8a:5c:69:7c:fe:e5:a6:2a:dd:51:bf:30:c9:ad:
         40:92:67:43:e3:31:6e:49:f5:27:ab:cd:c0:4c:f5:24:77:31:
         e7:11:54:1c:c6:65:8f:b8:f9:48:f1:64:d7:af:c7:00:63:dd:
         e4:01:c4:d3:4b:01:b7:f1:1d:8a:e3:c5:c0:ed:2d:15:67:19:
         68:f8:48:29:23:86:52:f0:c1:68:78:d3:73:32:45:19:cc:81:
         aa:53:f0:0b:4a:9a:63:0e:26:b4:d2:20:84:16:ff:19:e5:ce:
         dc:90:e0:01:b5:d5:c0:b1:94:08:71:02:14:f8:c7:a9:3f:3b:
         10:5e:5f:ad:fa:12:94:ba:ac:cd:12:84:8f:6f:68:fa:03:d9:
         60:73:99:3e:4d:fe:4a:ac:92:6c:0a:65:87:35:4e:31:45:cc:
         d7:70:ef:90:24:5b:b3:34:79:0e:1a:7a:ec:e8:1d:57:db:da:
         50:f2:16:76:be:f4:e3:a7:ab:09:a8:03:8e:74:38:b3:1c:f9:
         39:aa:86:46:6b:91:2a:14:d2:e1:6e:b8:b9:ea:b3:69:51:ac:
         a2:7e:fa:f3:f9:29:3b:54:10:fe:b8:bd:14:e6:b3:86:44:5f:
         e3:d5:27:1f:8a:33:5a:6c:78:97:91:e0:ac:97:e4:f1:86:c2:
         bb:15:84:d4:b1:e4:69:3c:10:ac:8b:73:c6:08:57:d8:92:95:
         aa:05:df:b9:01:d8:86:39:50:8d:59:f7:b0:4a:48:0b:b9:24:
         20:4e:d1:04:46:c5:5e:47:19:07:5f:77:12:72:27:d8:b4:83:
         8e:61:66:5c:16:12:b8:65:3b:ff:5a:85:69:38:de:45:e9:24:
         ec:bd:49:c4:e9:71:a7:24:05:67:f3:04:b2:9c:7f:6f:70:b9:
         6f:3e:66:cf:9f:4d:e8:ff:ed:e7:f2:42:19:05:25:68:8b:09:
         77:80:7d:e2:38:a5:8e:f7:e6:53:01:96:f0:e0:9e:d0:85:6f:
         3e:bb:77:9b:24:a7:29:4f:43:41:c8:c7:b6:7e:5e:d8:66:1a:
         19:d2:88:03:96:62:59:6a:8e:b3:45:33:0b:81:67:d5:79:ac:
         6c:5a:bf:9b:2b:2d:4c:cc
-----BEGIN CERTIFICATE-----
MIIFrzCCA5egAwIBAgIBEzANBgkqhkiG9w0BAQUFADBcMQswCQYDVQQGEwJQTDET
MBEGA1UECAwKU29tZS1TdGF0ZTEZMBcGA1UECgwQQUNLIEN5ZnJvbmV0IEFHSDEd
MBsGA1UEAwwUVmVpbENsdXN0ZXJUZXN0U3ViQ0EwHhcNMTQwNDI0MTM1MDA1WhcN
MjQwNDIxMTM1MDA1WjBdMQswCQYDVQQGEwJQTDETMBEGA1UECAwKU29tZS1TdGF0
ZTEZMBcGA1UECgwQQUNLIEN5ZnJvbmV0IEFHSDEeMBwGA1UEAwwVVmVpbENsdXN0
ZXJUZXN0U2VydmVyMIICIjANBgkqhkiG9w0BAQEFAAOCAg8AMIICCgKCAgEA3qHc
uz09JcP1plzxGMf4wypLgm2sxJ0EE3nDBrHq7CrwQb2+ib1D+0ez2pKTfDcfxihp
3UhvPhKpoR+f+BivfZPmIWiobIHRwIXSASuaz33hBKDqhCIVpA2DC6ElI6aJHnnc
cWsrK1lwHM5FEEMhwhPzwPAK+12qO1kmviOcGMbUGcBxj/Ucte/3Gr5mYDEh4fKZ
fnxfFyN3hh+KLcnlI3A8+/aOXzbS4rpXld6891gq5TSeSgqeC0fExvD9VlkYs9c1
CP0AfqSPhXDvz3KhHtK4343Mxdrl//+4X7uY5QVvfILexmqDr436jT2rrNfux+Cq
RXqyiSfj6Qeskv9aCGMptJZATd8f/PEU94jehNApHbPXiIIR+y9dnF8a1FDXJQPR
1+z4ZBqQ8axtktxaQR/Kv2j+6Pd87+q2XdwZcDzcGbOc2+FFyCXq1A8vREfM9KJB
1bsyNkVgGSln5VE0GpBJMYUo1Pxe7jYZA5do3tWok+0eGwiAsGesGrWf77l4Qsol
KNChQLIMa9vt8weOAgcRKqtbu9hx4RQtsRT61WzbBApfXtoZ1wyfYCECTIXnP/O7
LZdRwAKYFNq4pWkO3+d8yKHJOA4/0ScUZaWTHMQ5GnVQuyv5gYIGi32Su5EOOic4
W807jt7gQC9837ZXep8YCTxGJzh7NyJODyA6y28CAwEAAaN7MHkwCQYDVR0TBAIw
ADAsBglghkgBhvhCAQ0EHxYdT3BlblNTTCBHZW5lcmF0ZWQgQ2VydGlmaWNhdGUw
HQYDVR0OBBYEFLDMv1+0iQfxvigomqus3mgMawv2MB8GA1UdIwQYMBaAFD0ddPsN
5tp1j0d1VXAjNRMPg4ejMA0GCSqGSIb3DQEBBQUAA4ICAQAfldzGO9uv45eQ9ZdP
QCa5W8vrQbQumhWhGzqiAI9tfmYkgvNcRfApsXjlTBjuVcTB0/DQmDdj6okbNDtV
l3jkH9o+pFtCyd6wCzebCIa1HuXm7qN/H56+Cx63egNxilxpfP7lpirdUb8wya1A
kmdD4zFuSfUnq83ATPUkdzHnEVQcxmWPuPlI8WTXr8cAY93kAcTTSwG38R2K48XA
7S0VZxlo+EgpI4ZS8MFoeNNzMkUZzIGqU/ALSppjDia00iCEFv8Z5c7ckOABtdXA
sZQIcQIU+MepPzsQXl+t+hKUuqzNEoSPb2j6A9lgc5k+Tf5KrJJsCmWHNU4xRczX
cO+QJFuzNHkOGnrs6B1X29pQ8hZ2vvTjp6sJqAOOdDizHPk5qoZGa5EqFNLhbri5
6rNpUayifvrz+Sk7VBD+uL0U5rOGRF/j1ScfijNabHiXkeCsl+TxhsK7FYTUseRp
PBCsi3PGCFfYkpWqBd+5AdiGOVCNWfewSkgLuSQgTtEERsVeRxkHX3cScifYtIOO
YWZcFhK4ZTv/WoVpON5F6STsvUnE6XGnJAVn8wSynH9vcLlvPmbPn03o/+3n8kIZ
BSVoiwl3gH3iOKWO9+ZTAZbw4J7QhW8+u3ebJKcpT0NByMe2fl7YZhoZ0ogDlmJZ
ao6zRTMLgWfVeaxsWr+bKy1MzA==
-----END CERTIFICATE-----
-----BEGIN RSA PRIVATE KEY-----
MIIJKgIBAAKCAgEA3qHcuz09JcP1plzxGMf4wypLgm2sxJ0EE3nDBrHq7CrwQb2+
ib1D+0ez2pKTfDcfxihp3UhvPhKpoR+f+BivfZPmIWiobIHRwIXSASuaz33hBKDq
hCIVpA2DC6ElI6aJHnnccWsrK1lwHM5FEEMhwhPzwPAK+12qO1kmviOcGMbUGcBx
j/Ucte/3Gr5mYDEh4fKZfnxfFyN3hh+KLcnlI3A8+/aOXzbS4rpXld6891gq5TSe
SgqeC0fExvD9VlkYs9c1CP0AfqSPhXDvz3KhHtK4343Mxdrl//+4X7uY5QVvfILe
xmqDr436jT2rrNfux+CqRXqyiSfj6Qeskv9aCGMptJZATd8f/PEU94jehNApHbPX
iIIR+y9dnF8a1FDXJQPR1+z4ZBqQ8axtktxaQR/Kv2j+6Pd87+q2XdwZcDzcGbOc
2+FFyCXq1A8vREfM9KJB1bsyNkVgGSln5VE0GpBJMYUo1Pxe7jYZA5do3tWok+0e
GwiAsGesGrWf77l4QsolKNChQLIMa9vt8weOAgcRKqtbu9hx4RQtsRT61WzbBApf
XtoZ1wyfYCECTIXnP/O7LZdRwAKYFNq4pWkO3+d8yKHJOA4/0ScUZaWTHMQ5GnVQ
uyv5gYIGi32Su5EOOic4W807jt7gQC9837ZXep8YCTxGJzh7NyJODyA6y28CAwEA
AQKCAgBGjoHIDXZtm5ckrFv0gJvELolTwrJ4dVKvYW1/l69ePZV7IElcmdELuAO2
B7IaMdYuFOzIJoaq43tDByTJmfk0EUVj3SlTiikRnNeba1ha3ggMUXtBeRPmtCmN
6/o7PDJEqFZG07IQwP2ZA3470yrFuVENGoZAd8TVnkF7DQoRiCH8L1NOTl5VAsIL
hcAoSCn20831mjEAwkrFBQXj0RJ/krihGdixMEzRckEDzF2S/ixKC80GpirEZHBm
pEWFsiL0DAZQ3O3lNP4PSmWWFzwc6qeQof39zowJ/99M58Vi/7//c/Jqa6NkZdi8
Holj8+NHEVqlPmeKtEu0tKvqwmajnj1VK7L8z4gXOpxKkggHj61fw9rd+wc8mg7B
Klqq9AaVSrgasr6Vp5OTHoy97S8oIvts8nFGxXoEeN0sY4OA/owR4WUGNIR8Fm92
L6cIZCBt0YhMCQKH00aZ2DoFx7PW3X6X8Se6xopJ/T6Jbci7RZbgWz1Qd0yESjQE
HWLTMQs6FcjqAZHU683TO4QTMcTFW6+15xMqtLhqxYpW5vzuBBOSWFgMlIEQqG0R
Dl3+xylovBnlvT9exxE5i57RevPRwiFOpd5xoHrIo0jrZFs9fGazfk1tnCKrKLuz
gsixIfZnWrsApehb0NyjIO6Lm6Nu0xgXCbdkdnlONHN3EyWuwQKCAQEA/fcZ+IIF
tw4V8WbBnDy9wWxNlUZlokraJUmRfDK1NSAn5mdCOTjW7B737RmU1tu6fohCKg/D
HOud/vGsMDjy0J78ueNOUQ9awUJwW1AKaiMMHTCIR0+F+4pm9Z99fXSL7PeNf9iO
zHSWJ8f+a+9EoyZVRUxqp2SKxq8OsHDiUixHOBPvHBySdjiMAGCEF2lgyaq4FvP7
73owB5s0+ELmCdF9FCw6lXtOZX97BMCbVlVpw+WpqupRIOnGnyMm76oaCrbrI20A
0EDeFnKunwY1wYzLAZItQ7gxsdwJlfoZrFYFp2+zGgYC1mpEtdzTeLDmstIJ8xFZ
di/UZlDjrZ/kvwKCAQEA4Gp+stew0WkoRAshT+skzwcqxTlhg3HwojUI+X0xvF7l
Ch9COT3uk0btLIJBlzFNiWDcLaBfhxcAr21dbkA6WNNIDBpvpIqHY3rmnCraxd2N
e/6fWgUKr5BdJXZXryV1CKpkGp20IIUlNPAiOrUScMzD5HbnOFmOu0mI7xXA3Swk
+MAzSjm2ByOucMw8NVa059knSTs7lc5btUUAX20Oze3D2b9rNOV3Ak/SoRAa3/Hg
xKTbORRVojRmLtwOXVMp0pQ1aLQHVYIBNrkNEPhO98ZqwMRlzjhllllXWeZuiZc7
BIZUukvVuWyjxboF89uMBzSkLbDFZ2jJL8dJ4lBVUQKCAQEA0679hLfLz7L780T1
KCcw+2IsoLoWyNmfTuktTNpvVCLDXza+ajfIXPPLL2PdPeHUZtdoXurYdOinvvLt
1RwCuIVsnfyrMMGdoeyg/luO8rzXwhTL4rSUNwA7pYwU61cTsqb82I1HKYAcEHiQ
xqKfEWZIOQTi+TfCvKz5j3PoERo7GrDy4vml0sh7WW0ZbPI27KFR5D/lxMyR8CUc
V7pbR9/HY+MhyasHw24oueNZFvMGv3RUodPBX6+8ELUaJTYhksC46cRXoz4OX6Oj
jYV9lSCnrV2MQR/svBVuIAZhE9Z3zAI8xPoxr0rQjs3LrpO1F2QfSu0xJmPjpIzT
2cqmvQKCAQEArieW+V1Pd8O+nsdwa5/U6eDq/TEhjqtejdLQiyTv8vpFjoxhjSCV
w694IWFYW2fEf0cuty3M1H4yZvFdX1DytroIIHRnjW5/0OCwlCLhsknUIZSgv3BI
MaS71HW5aE+OOlJY6xrVjaMmE6YDOkII9IbDwsnPeDhv/sH7RWdBS6KVcoFdjE2r
CHFVT23/j3khXQd1aGxSOlhxbQQGXQe6RG8u3Q2iueMVbzLZB2sDICWKQ7CX+/ze
08kMP3NApoYCX8vqgr2rL117aadED5ZTWg+eCsifJOE5XOsqUbb0s0wsXb+NgyGU
05gOpERPmEYZrgHZIygambyE3NIwcTPccQKCAQEAyX3UVMCoSd3s8/EjxuOE/9oX
FyN072TWL2XgTEqIviBXxK/4AXBPSSQ8Yx0aGH0TDf48wCzoKs9vTLdmycZebHNE
KO3RIVJXOV30Y1vgSdeh5r12GOF1kBNH9K2hsy5QK5KuCk4p0U+BBhVhSYs7BOdG
UuPtjsC4lsX6sqXB4KH+fjutNMpoYziBSqUjtlBcie2XKtvhpOwv0totYUx6DnG7
h2CGyO8ZzLSGV4KUrPcOY2Tn4VNSCbpz/jw4rLF/Sg4sDg9R3o3XTiYpH5Ha2ob6
bKY5qZgyY53x1Fyin4WuA+ojzmnnyN08hM8pkmvRimnby9a8qDnsWtuWCRScSA==
-----END RSA PRIVATE KEY-----
